target datalayout = "e-m:e-p270:32:32-p271:32:32-p272:64:64-i64:64-i128:128-f80:128-n8:16:32:64-S128"
target triple = "x86_64-unknown-linux-gnu"

%"class.rocksdb::Slice" = type { ptr, i64 }
%"class.rocksdb::InternalKey" = type { %"class.std::__cxx11::basic_string" }
%"class.std::__cxx11::basic_string" = type { %"struct.std::__cxx11::basic_string<char>::_Alloc_hider", i64, %union.anon }
%"struct.std::__cxx11::basic_string<char>::_Alloc_hider" = type { ptr }
%union.anon = type { i64, [8 x i8] }
%"struct.rocksdb::FragmentedRangeTombstoneList" = type { %"class.std::vector", %"class.std::vector.2", %"class.std::vector.7", %"struct.std::once_flag", %"class.std::set", %"class.std::__cxx11::list", %"class.rocksdb::PinnedIteratorsManager", i64, i64 }
%"class.std::vector" = type { %"struct.std::_Vector_base" }
%"struct.std::_Vector_base" = type { %"struct.std::_Vector_base<rocksdb::FragmentedRangeTombstoneList::RangeTombstoneStack, std::allocator<rocksdb::FragmentedRangeTombstoneList::RangeTombstoneStack>>::_Vector_impl" }
%"struct.std::_Vector_base<rocksdb::FragmentedRangeTombstoneList::RangeTombstoneStack, std::allocator<rocksdb::FragmentedRangeTombstoneList::RangeTombstoneStack>>::_Vector_impl" = type { %"struct.std::_Vector_base<rocksdb::FragmentedRangeTombstoneList::RangeTombstoneStack, std::allocator<rocksdb::FragmentedRangeTombstoneList::RangeTombstoneStack>>::_Vector_impl_data" }
%"struct.std::_Vector_base<rocksdb::FragmentedRangeTombstoneList::RangeTombstoneStack, std::allocator<rocksdb::FragmentedRangeTombstoneList::RangeTombstoneStack>>::_Vector_impl_data" = type { ptr, ptr, ptr }
%"class.std::vector.2" = type { %"struct.std::_Vector_base.3" }
%"struct.std::_Vector_base.3" = type { %"struct.std::_Vector_base<unsigned long, std::allocator<unsigned long>>::_Vector_impl" }
%"struct.std::_Vector_base<unsigned long, std::allocator<unsigned long>>::_Vector_impl" = type { %"struct.std::_Vector_base<unsigned long, std::allocator<unsigned long>>::_Vector_impl_data" }
%"struct.std::_Vector_base<unsigned long, std::allocator<unsigned long>>::_Vector_impl_data" = type { ptr, ptr, ptr }
%"class.std::vector.7" = type { %"struct.std::_Vector_base.8" }
%"struct.std::_Vector_base.8" = type { %"struct.std::_Vector_base<rocksdb::Slice, std::allocator<rocksdb::Slice>>::_Vector_impl" }
%"struct.std::_Vector_base<rocksdb::Slice, std::allocator<rocksdb::Slice>>::_Vector_impl" = type { %"struct.std::_Vector_base<rocksdb::Slice, std::allocator<rocksdb::Slice>>::_Vector_impl_data" }
%"struct.std::_Vector_base<rocksdb::Slice, std::allocator<rocksdb::Slice>>::_Vector_impl_data" = type { ptr, ptr, ptr }
%"struct.std::once_flag" = type { i32 }
%"class.std::set" = type { %"class.std::_Rb_tree" }
%"class.std::_Rb_tree" = type { %"struct.std::_Rb_tree<unsigned long, unsigned long, std::_Identity<unsigned long>, std::less<unsigned long>>::_Rb_tree_impl" }
%"struct.std::_Rb_tree<unsigned long, unsigned long, std::_Identity<unsigned long>, std::less<unsigned long>>::_Rb_tree_impl" = type { %"struct.std::_Rb_tree_key_compare", %"struct.std::_Rb_tree_header" }
%"struct.std::_Rb_tree_key_compare" = type { %"struct.std::less" }
%"struct.std::less" = type { i8 }
%"struct.std::_Rb_tree_header" = type { %"struct.std::_Rb_tree_node_base", i64 }
%"struct.std::_Rb_tree_node_base" = type { i32, ptr, ptr, ptr }
%"class.std::__cxx11::list" = type { %"class.std::__cxx11::_List_base" }
%"class.std::__cxx11::_List_base" = type { %"struct.std::__cxx11::_List_base<std::__cxx11::basic_string<char>, std::allocator<std::__cxx11::basic_string<char>>>::_List_impl" }
%"struct.std::__cxx11::_List_base<std::__cxx11::basic_string<char>, std::allocator<std::__cxx11::basic_string<char>>>::_List_impl" = type { %"struct.std::__detail::_List_node_header" }
%"struct.std::__detail::_List_node_header" = type { %"struct.std::__detail::_List_node_base", i64 }
%"struct.std::__detail::_List_node_base" = type { ptr, ptr }
%"class.rocksdb::PinnedIteratorsManager" = type { %"class.rocksdb::Cleanable", i8, %"class.std::vector.18" }
%"class.rocksdb::Cleanable" = type { %"struct.rocksdb::Cleanable::Cleanup" }
%"struct.rocksdb::Cleanable::Cleanup" = type { ptr, ptr, ptr, ptr }
%"class.std::vector.18" = type { %"struct.std::_Vector_base.19" }
%"struct.std::_Vector_base.19" = type { %"struct.std::_Vector_base<std::pair<void *, void (*)(void *)>, std::allocator<std::pair<void *, void (*)(void *)>>>::_Vector_impl" }
%"struct.std::_Vector_base<std::pair<void *, void (*)(void *)>, std::allocator<std::pair<void *, void (*)(void *)>>>::_Vector_impl" = type { %"struct.std::_Vector_base<std::pair<void *, void (*)(void *)>, std::allocator<std::pair<void *, void (*)(void *)>>>::_Vector_impl_data" }
%"struct.std::_Vector_base<std::pair<void *, void (*)(void *)>, std::allocator<std::pair<void *, void (*)(void *)>>>::_Vector_impl_data" = type { ptr, ptr, ptr }
%"class.__gnu_cxx::__normal_iterator.58" = type { ptr }
%"class.rocksdb::FragmentedRangeTombstoneIterator" = type { %"class.rocksdb::InternalIteratorBase", %"struct.rocksdb::FragmentedRangeTombstoneIterator::RangeTombstoneStackStartComparator", %"struct.rocksdb::FragmentedRangeTombstoneIterator::RangeTombstoneStackEndComparator", ptr, ptr, %"class.std::shared_ptr", %"class.std::shared_ptr.55", ptr, i64, i64, ptr, %"class.__gnu_cxx::__normal_iterator", %"class.__gnu_cxx::__normal_iterator.58", %"class.__gnu_cxx::__normal_iterator", %"class.__gnu_cxx::__normal_iterator.58", %"class.rocksdb::InternalKey" }
%"class.rocksdb::InternalIteratorBase" = type { ptr, %"class.rocksdb::Cleanable" }
%"struct.rocksdb::FragmentedRangeTombstoneIterator::RangeTombstoneStackStartComparator" = type { ptr }
%"struct.rocksdb::FragmentedRangeTombstoneIterator::RangeTombstoneStackEndComparator" = type { ptr }
%"class.std::shared_ptr" = type { %"class.std::__shared_ptr" }
%"class.std::__shared_ptr" = type { ptr, %"class.std::__shared_count" }
%"class.std::__shared_count" = type { ptr }
%"class.std::shared_ptr.55" = type { %"class.std::__shared_ptr.56" }
%"class.std::__shared_ptr.56" = type { ptr, %"class.std::__shared_count" }
%"class.__gnu_cxx::__normal_iterator" = type { ptr }
%"struct.rocksdb::FragmentedRangeTombstoneList::RangeTombstoneStack" = type { %"class.rocksdb::Slice", %"class.rocksdb::Slice", i64, i64 }

; Function Attrs: mustprogress nounwind uwtable
define linkonce_odr noundef nonnull align 8 dereferenceable(8) ptr @_ZN9__gnu_cxx17__normal_iteratorIPKmSt6vectorImSaImEEEpLEl(ptr noundef nonnull align 8 dereferenceable(8) %this, i64 noundef %__n) #1 comdat align 2 {
entry:
  %this.addr = alloca ptr, align 8
  %__n.addr = alloca i64, align 8
  store ptr %this, ptr %this.addr, align 8
  store i64 %__n, ptr %__n.addr, align 8
  %this1 = load ptr, ptr %this.addr, align 8
  %0 = load i64, ptr %__n.addr, align 8
  %_M_current = getelementptr inbounds %"class.__gnu_cxx::__normal_iterator.58", ptr %this1, i32 0, i32 0
  %1 = load ptr, ptr %_M_current, align 8
  %add.ptr = getelementptr inbounds i64, ptr %1, i64 %0
  store ptr %add.ptr, ptr %_M_current, align 8
  ret ptr %this1
}

; Function Attrs: mustprogress nounwind uwtable
define linkonce_odr noundef nonnull align 8 dereferenceable(8) ptr @_ZN9__gnu_cxx17__normal_iteratorIPKmSt6vectorImSaImEEEmmEv(ptr noundef nonnull align 8 dereferenceable(8) %this) #1 comdat align 2 {
entry:
  %this.addr = alloca ptr, align 8
  store ptr %this, ptr %this.addr, align 8
  %this1 = load ptr, ptr %this.addr, align 8
  %_M_current = getelementptr inbounds %"class.__gnu_cxx::__normal_iterator.58", ptr %this1, i32 0, i32 0
  %0 = load ptr, ptr %_M_current, align 8
  %incdec.ptr = getelementptr inbounds i64, ptr %0, i32 -1
  store ptr %incdec.ptr, ptr %_M_current, align 8
  ret ptr %this1
}

; Function Attrs: mustprogress nounwind uwtable
define linkonce_odr void @_ZSt9__advanceIN9__gnu_cxx17__normal_iteratorIPKmSt6vectorImSaImEEEElEvRT_T0_St26random_access_iterator_tag(ptr noundef nonnull align 8 dereferenceable(8) %__i, i64 noundef %__n) #1 comdat {
entry:
  %__i.addr = alloca ptr, align 8
  %__n.addr = alloca i64, align 8
  store ptr %__i, ptr %__i.addr, align 8
  store i64 %__n, ptr %__n.addr, align 8
  %0 = load i64, ptr %__n.addr, align 8
  %1 = call i1 @llvm.is.constant.i64(i64 %0)
  br i1 %1, label %land.lhs.true, label %if.else

land.lhs.true:                                    ; preds = %entry
  %2 = load i64, ptr %__n.addr, align 8
  %cmp = icmp eq i64 %2, 1
  br i1 %cmp, label %if.then, label %if.else

if.then:                                          ; preds = %land.lhs.true
  %3 = load ptr, ptr %__i.addr, align 8
  %call = call noundef nonnull align 8 dereferenceable(8) ptr @_ZN9__gnu_cxx17__normal_iteratorIPKmSt6vectorImSaImEEEppEv(ptr noundef nonnull align 8 dereferenceable(8) %3) #15
  br label %if.end7

if.else:                                          ; preds = %land.lhs.true, %entry
  %4 = load i64, ptr %__n.addr, align 8
  %5 = call i1 @llvm.is.constant.i64(i64 %4)
  br i1 %5, label %land.lhs.true1, label %if.else5

land.lhs.true1:                                   ; preds = %if.else
  %6 = load i64, ptr %__n.addr, align 8
  %cmp2 = icmp eq i64 %6, -1
  br i1 %cmp2, label %if.then3, label %if.else5

if.then3:                                         ; preds = %land.lhs.true1
  %7 = load ptr, ptr %__i.addr, align 8
  %call4 = call noundef nonnull align 8 dereferenceable(8) ptr @_ZN9__gnu_cxx17__normal_iteratorIPKmSt6vectorImSaImEEEmmEv(ptr noundef nonnull align 8 dereferenceable(8) %7) #15
  br label %if.end

if.else5:                                         ; preds = %land.lhs.true1, %if.else
  %8 = load i64, ptr %__n.addr, align 8
  %9 = load ptr, ptr %__i.addr, align 8
  %call6 = call noundef nonnull align 8 dereferenceable(8) ptr @_ZN9__gnu_cxx17__normal_iteratorIPKmSt6vectorImSaImEEEpLEl(ptr noundef nonnull align 8 dereferenceable(8) %9, i64 noundef %8) #15
  br label %if.end

if.end:                                           ; preds = %if.else5, %if.then3
  br label %if.end7

if.end7:                                          ; preds = %if.end, %if.then
  ret void
}

; Function Attrs: mustprogress nounwind uwtable
define linkonce_odr void @_ZSt19__iterator_categoryIN9__gnu_cxx17__normal_iteratorIPKmSt6vectorImSaImEEEEENSt15iterator_traitsIT_E17iterator_categoryERKS9_(ptr noundef nonnull align 8 dereferenceable(8) %0) #1 comdat {
entry:
  %.addr = alloca ptr, align 8
  store ptr %0, ptr %.addr, align 8
  ret void
}

; Function Attrs: mustprogress uwtable
define linkonce_odr void @_ZSt7advanceIN9__gnu_cxx17__normal_iteratorIPKmSt6vectorImSaImEEEElEvRT_T0_(ptr noundef nonnull align 8 dereferenceable(8) %__i, i64 noundef %__n) #0 comdat {
entry:
  %__i.addr = alloca ptr, align 8
  %__n.addr = alloca i64, align 8
  %__d = alloca i64, align 8
  store ptr %__i, ptr %__i.addr, align 8
  store i64 %__n, ptr %__n.addr, align 8
  %0 = load i64, ptr %__n.addr, align 8
  store i64 %0, ptr %__d, align 8
  %1 = load ptr, ptr %__i.addr, align 8
  %2 = load i64, ptr %__d, align 8
  %3 = load ptr, ptr %__i.addr, align 8
  call void @_ZSt19__iterator_categoryIN9__gnu_cxx17__normal_iteratorIPKmSt6vectorImSaImEEEEENSt15iterator_traitsIT_E17iterator_categoryERKS9_(ptr noundef nonnull align 8 dereferenceable(8) %3)
  call void @_ZSt9__advanceIN9__gnu_cxx17__normal_iteratorIPKmSt6vectorImSaImEEEElEvRT_T0_St26random_access_iterator_tag(ptr noundef nonnull align 8 dereferenceable(8) %1, i64 noundef %2)
  ret void
}

; Function Attrs: mustprogress nounwind uwtable
define linkonce_odr void @_ZN9__gnu_cxx17__normal_iteratorIPKmSt6vectorImSaImEEEC2ERKS2_(ptr noundef nonnull align 8 dereferenceable(8) %this, ptr noundef nonnull align 8 dereferenceable(8) %__i) unnamed_addr #1 comdat align 2 {
entry:
  %this.addr = alloca ptr, align 8
  %__i.addr = alloca ptr, align 8
  store ptr %this, ptr %this.addr, align 8
  store ptr %__i, ptr %__i.addr, align 8
  %this1 = load ptr, ptr %this.addr, align 8
  %_M_current = getelementptr inbounds %"class.__gnu_cxx::__normal_iterator.58", ptr %this1, i32 0, i32 0
  %0 = load ptr, ptr %__i.addr, align 8
  %1 = load ptr, ptr %0, align 8
  store ptr %1, ptr %_M_current, align 8
  ret void
}

; Function Attrs: mustprogress nounwind uwtable
define linkonce_odr noundef nonnull align 8 dereferenceable(8) ptr @_ZNK9__gnu_cxx17__normal_iteratorIPKmSt6vectorImSaImEEE4baseEv(ptr noundef nonnull align 8 dereferenceable(8) %this) #1 comdat align 2 {
entry:
  %this.addr = alloca ptr, align 8
  store ptr %this, ptr %this.addr, align 8
  %this1 = load ptr, ptr %this.addr, align 8
  %_M_current = getelementptr inbounds %"class.__gnu_cxx::__normal_iterator.58", ptr %this1, i32 0, i32 0
  ret ptr %_M_current
}

; Function Attrs: mustprogress uwtable
define linkonce_odr ptr @_ZSt4nextIN9__gnu_cxx17__normal_iteratorIPKmSt6vectorImSaImEEEEET_S8_NSt15iterator_traitsIS8_E15difference_typeE(ptr %__x.coerce, i64 noundef %__n) #0 comdat {
entry:
  %retval = alloca %"class.__gnu_cxx::__normal_iterator.58", align 8
  %__x = alloca %"class.__gnu_cxx::__normal_iterator.58", align 8
  %__n.addr = alloca i64, align 8
  %coerce.dive = getelementptr inbounds %"class.__gnu_cxx::__normal_iterator.58", ptr %__x, i32 0, i32 0
  store ptr %__x.coerce, ptr %coerce.dive, align 8
  store i64 %__n, ptr %__n.addr, align 8
  %0 = load i64, ptr %__n.addr, align 8
  call void @_ZSt7advanceIN9__gnu_cxx17__normal_iteratorIPKmSt6vectorImSaImEEEElEvRT_T0_(ptr noundef nonnull align 8 dereferenceable(8) %__x, i64 noundef %0)
  call void @llvm.memcpy.p0.p0.i64(ptr align 8 %retval, ptr align 8 %__x, i64 8, i1 false)
  %coerce.dive1 = getelementptr inbounds %"class.__gnu_cxx::__normal_iterator.58", ptr %retval, i32 0, i32 0
  %1 = load ptr, ptr %coerce.dive1, align 8
  ret ptr %1
}

; Function Attrs: mustprogress nounwind uwtable
define linkonce_odr ptr @_ZNKSt6vectorImSaImEE5beginEv(ptr noundef nonnull align 8 dereferenceable(24) %this) #1 comdat align 2 {
entry:
  %retval = alloca %"class.__gnu_cxx::__normal_iterator.58", align 8
  %this.addr = alloca ptr, align 8
  store ptr %this, ptr %this.addr, align 8
  %this1 = load ptr, ptr %this.addr, align 8
  %_M_impl = getelementptr inbounds %"struct.std::_Vector_base.3", ptr %this1, i32 0, i32 0
  %_M_start = getelementptr inbounds %"struct.std::_Vector_base<unsigned long, std::allocator<unsigned long>>::_Vector_impl_data", ptr %_M_impl, i32 0, i32 0
  call void @_ZN9__gnu_cxx17__normal_iteratorIPKmSt6vectorImSaImEEEC2ERKS2_(ptr noundef nonnull align 8 dereferenceable(8) %retval, ptr noundef nonnull align 8 dereferenceable(8) %_M_start) #15
  %coerce.dive = getelementptr inbounds %"class.__gnu_cxx::__normal_iterator.58", ptr %retval, i32 0, i32 0
  %0 = load ptr, ptr %coerce.dive, align 8
  ret ptr %0
}

; Function Attrs: mustprogress nounwind uwtable
define linkonce_odr noundef nonnull align 8 dereferenceable(8) ptr @_ZN9__gnu_cxx17__normal_iteratorIPKN7rocksdb28FragmentedRangeTombstoneList19RangeTombstoneStackESt6vectorIS3_SaIS3_EEEppEv(ptr noundef nonnull align 8 dereferenceable(8) %this) #1 comdat align 2 {
entry:
  %this.addr = alloca ptr, align 8
  store ptr %this, ptr %this.addr, align 8
  %this1 = load ptr, ptr %this.addr, align 8
  %_M_current = getelementptr inbounds %"class.__gnu_cxx::__normal_iterator", ptr %this1, i32 0, i32 0
  %0 = load ptr, ptr %_M_current, align 8
  %incdec.ptr = getelementptr inbounds %"struct.rocksdb::FragmentedRangeTombstoneList::RangeTombstoneStack", ptr %0, i32 1
  store ptr %incdec.ptr, ptr %_M_current, align 8
  ret ptr %this1
}

; Function Attrs: mustprogress nounwind uwtable
define linkonce_odr noundef zeroext i1 @_ZN9__gnu_cxxeqIPKmSt6vectorImSaImEEEEbRKNS_17__normal_iteratorIT_T0_EESB_(ptr noundef nonnull align 8 dereferenceable(8) %__lhs, ptr noundef nonnull align 8 dereferenceable(8) %__rhs) #1 comdat {
entry:
  %__lhs.addr = alloca ptr, align 8
  %__rhs.addr = alloca ptr, align 8
  store ptr %__lhs, ptr %__lhs.addr, align 8
  store ptr %__rhs, ptr %__rhs.addr, align 8
  %0 = load ptr, ptr %__lhs.addr, align 8
  %call = call noundef nonnull align 8 dereferenceable(8) ptr @_ZNK9__gnu_cxx17__normal_iteratorIPKmSt6vectorImSaImEEE4baseEv(ptr noundef nonnull align 8 dereferenceable(8) %0) #15
  %1 = load ptr, ptr %call, align 8
  %2 = load ptr, ptr %__rhs.addr, align 8
  %call1 = call noundef nonnull align 8 dereferenceable(8) ptr @_ZNK9__gnu_cxx17__normal_iteratorIPKmSt6vectorImSaImEEE4baseEv(ptr noundef nonnull align 8 dereferenceable(8) %2) #15
  %3 = load ptr, ptr %call1, align 8
  %cmp = icmp eq ptr %1, %3
  ret i1 %cmp
}

; Function Attrs: mustprogress uwtable
define linkonce_odr ptr @_ZNK7rocksdb28FragmentedRangeTombstoneList8seq_iterEm(ptr noundef nonnull align 8 dereferenceable(232) %this, i64 noundef %idx) #0 comdat align 2 {
entry:
  %retval = alloca %"class.__gnu_cxx::__normal_iterator.58", align 8
  %this.addr = alloca ptr, align 8
  %idx.addr = alloca i64, align 8
  %agg.tmp = alloca %"class.__gnu_cxx::__normal_iterator.58", align 8
  store ptr %this, ptr %this.addr, align 8
  store i64 %idx, ptr %idx.addr, align 8
  %this1 = load ptr, ptr %this.addr, align 8
  %tombstone_seqs_ = getelementptr inbounds %"struct.rocksdb::FragmentedRangeTombstoneList", ptr %this1, i32 0, i32 1
  %call = call ptr @_ZNKSt6vectorImSaImEE5beginEv(ptr noundef nonnull align 8 dereferenceable(24) %tombstone_seqs_) #15
  %coerce.dive = getelementptr inbounds %"class.__gnu_cxx::__normal_iterator.58", ptr %agg.tmp, i32 0, i32 0
  store ptr %call, ptr %coerce.dive, align 8
  %0 = load i64, ptr %idx.addr, align 8
  %coerce.dive2 = getelementptr inbounds %"class.__gnu_cxx::__normal_iterator.58", ptr %agg.tmp, i32 0, i32 0
  %1 = load ptr, ptr %coerce.dive2, align 8
  %call3 = call ptr @_ZSt4nextIN9__gnu_cxx17__normal_iteratorIPKmSt6vectorImSaImEEEEET_S8_NSt15iterator_traitsIS8_E15difference_typeE(ptr %1, i64 noundef %0)
  %coerce.dive4 = getelementptr inbounds %"class.__gnu_cxx::__normal_iterator.58", ptr %retval, i32 0, i32 0
  store ptr %call3, ptr %coerce.dive4, align 8
  %coerce.dive5 = getelementptr inbounds %"class.__gnu_cxx::__normal_iterator.58", ptr %retval, i32 0, i32 0
  %2 = load ptr, ptr %coerce.dive5, align 8
  ret ptr %2
}

; Function Attrs: mustprogress nounwind uwtable
define linkonce_odr noundef ptr @_ZNK9__gnu_cxx17__normal_iteratorIPKN7rocksdb28FragmentedRangeTombstoneList19RangeTombstoneStackESt6vectorIS3_SaIS3_EEEptEv(ptr noundef nonnull align 8 dereferenceable(8) %this) #1 comdat align 2 {
entry:
  %this.addr = alloca ptr, align 8
  store ptr %this, ptr %this.addr, align 8
  %this1 = load ptr, ptr %this.addr, align 8
  %_M_current = getelementptr inbounds %"class.__gnu_cxx::__normal_iterator", ptr %this1, i32 0, i32 0
  %0 = load ptr, ptr %_M_current, align 8
  ret ptr %0
}

; Function Attrs: mustprogress nounwind uwtable
define linkonce_odr noundef nonnull align 8 dereferenceable(8) ptr @_ZN9__gnu_cxx17__normal_iteratorIPKmSt6vectorImSaImEEEppEv(ptr noundef nonnull align 8 dereferenceable(8) %this) #1 comdat align 2 {
entry:
  %this.addr = alloca ptr, align 8
  store ptr %this, ptr %this.addr, align 8
  %this1 = load ptr, ptr %this.addr, align 8
  %_M_current = getelementptr inbounds %"class.__gnu_cxx::__normal_iterator.58", ptr %this1, i32 0, i32 0
  %0 = load ptr, ptr %_M_current, align 8
  %incdec.ptr = getelementptr inbounds i64, ptr %0, i32 1
  store ptr %incdec.ptr, ptr %_M_current, align 8
  ret ptr %this1
}

; Function Attrs: mustprogress uwtable
define void @_ZN7rocksdb32FragmentedRangeTombstoneIterator4NextEv(ptr noundef nonnull align 8 dereferenceable(200) %this) unnamed_addr #0 align 2 {
entry:
  %this.addr = alloca ptr, align 8
  %ref.tmp = alloca %"class.__gnu_cxx::__normal_iterator.58", align 8
  store ptr %this, ptr %this.addr, align 8
  %this1 = load ptr, ptr %this.addr, align 8
  %seq_pos_ = getelementptr inbounds %"class.rocksdb::FragmentedRangeTombstoneIterator", ptr %this1, i32 0, i32 12
  %call = call noundef nonnull align 8 dereferenceable(8) ptr @_ZN9__gnu_cxx17__normal_iteratorIPKmSt6vectorImSaImEEEppEv(ptr noundef nonnull align 8 dereferenceable(8) %seq_pos_) #15
  %seq_pos_2 = getelementptr inbounds %"class.rocksdb::FragmentedRangeTombstoneIterator", ptr %this1, i32 0, i32 12
  %tombstones_ = getelementptr inbounds %"class.rocksdb::FragmentedRangeTombstoneIterator", ptr %this1, i32 0, i32 7
  %0 = load ptr, ptr %tombstones_, align 8
  %pos_ = getelementptr inbounds %"class.rocksdb::FragmentedRangeTombstoneIterator", ptr %this1, i32 0, i32 11
  %call3 = call noundef ptr @_ZNK9__gnu_cxx17__normal_iteratorIPKN7rocksdb28FragmentedRangeTombstoneList19RangeTombstoneStackESt6vectorIS3_SaIS3_EEEptEv(ptr noundef nonnull align 8 dereferenceable(8) %pos_) #15
  %seq_end_idx = getelementptr inbounds %"struct.rocksdb::FragmentedRangeTombstoneList::RangeTombstoneStack", ptr %call3, i32 0, i32 3
  %1 = load i64, ptr %seq_end_idx, align 8
  %call4 = call ptr @_ZNK7rocksdb28FragmentedRangeTombstoneList8seq_iterEm(ptr noundef nonnull align 8 dereferenceable(232) %0, i64 noundef %1)
  %coerce.dive = getelementptr inbounds %"class.__gnu_cxx::__normal_iterator.58", ptr %ref.tmp, i32 0, i32 0
  store ptr %call4, ptr %coerce.dive, align 8
  %call5 = call noundef zeroext i1 @_ZN9__gnu_cxxeqIPKmSt6vectorImSaImEEEEbRKNS_17__normal_iteratorIT_T0_EESB_(ptr noundef nonnull align 8 dereferenceable(8) %seq_pos_2, ptr noundef nonnull align 8 dereferenceable(8) %ref.tmp) #15
  br i1 %call5, label %if.then, label %if.end

if.then:                                          ; preds = %entry
  %pos_6 = getelementptr inbounds %"class.rocksdb::FragmentedRangeTombstoneIterator", ptr %this1, i32 0, i32 11
  %call7 = call noundef nonnull align 8 dereferenceable(8) ptr @_ZN9__gnu_cxx17__normal_iteratorIPKN7rocksdb28FragmentedRangeTombstoneList19RangeTombstoneStackESt6vectorIS3_SaIS3_EEEppEv(ptr noundef nonnull align 8 dereferenceable(8) %pos_6) #15
  br label %if.end

if.end:                                           ; preds = %if.then, %entry
  ret void
}