; Function Attrs: mustprogress nofree norecurse nosync nounwind willreturn memory(read, argmem: readwrite, inaccessiblemem: none) uwtable
define void @_ZN7rocksdb32FragmentedRangeTombstoneIterator4NextEv(ptr nocapture noundef nonnull align 8 dereferenceable(200) %this) unnamed_addr #4 align 2 {
entry:
  %seq_pos_ = getelementptr inbounds i8, ptr %this, i64 144
  %0 = load ptr, ptr %seq_pos_, align 8
  %incdec.ptr.i = getelementptr inbounds i8, ptr %0, i64 8
  store ptr %incdec.ptr.i, ptr %seq_pos_, align 8
  %tombstones_ = getelementptr inbounds i8, ptr %this, i64 104
  %1 = load ptr, ptr %tombstones_, align 8
  %pos_ = getelementptr inbounds i8, ptr %this, i64 136
  %2 = load ptr, ptr %pos_, align 8
  %seq_end_idx = getelementptr inbounds i8, ptr %2, i64 40
  %3 = load i64, ptr %seq_end_idx, align 8
  %tombstone_seqs_.i = getelementptr inbounds i8, ptr %1, i64 24
  %4 = load ptr, ptr %tombstone_seqs_.i, align 8
  %add.ptr.i.i.i.i.i = getelementptr inbounds i64, ptr %4, i64 %3
  %cmp.i = icmp eq ptr %incdec.ptr.i, %add.ptr.i.i.i.i.i
  br i1 %cmp.i, label %if.then, label %if.end

if.then:                                          ; preds = %entry
  %incdec.ptr.i1 = getelementptr inbounds i8, ptr %2, i64 48
  store ptr %incdec.ptr.i1, ptr %pos_, align 8
  br label %if.end

if.end:                                           ; preds = %if.then, %entry
  ret void
}